target datalayout = "e-m:e-p270:32:32-p271:32:32-p272:64:64-i64:64-i128:128-f80:128-n8:16:32:64-S128"
target triple = "x86_64-unknown-linux-gnu"

%struct.__sigset_t = type { [16 x i64] }
%struct.CPUState = type { %struct.DeviceState, ptr, i32, i32, ptr, i32, i8, i8, ptr, i8, i8, i8, i8, i8, i8, i8, i8, i32, i32, i32, i32, i64, i64, i64, [1 x %struct.__jmp_buf_tag], %struct.QemuMutex, %struct.anon, ptr, i32, ptr, ptr, ptr, ptr, i32, i32, %union.anon, %union.anon.0, %union.anon.1, ptr, ptr, i64, i32, ptr, ptr, ptr, i32, i64, i32, %struct.QemuLockCnt, [1 x i64], ptr, i32, i32, i32, i32, i32, ptr, i8, i8, i64, i8, i8, ptr, [8 x i8], [0 x i8], %struct.CPUNegativeOffsetState }
%struct.DeviceState = type { %struct.Object, ptr, ptr, i8, i8, i64, ptr, i32, i8, ptr, %struct.NamedGPIOListHead, %struct.NamedClockListHead, %struct.BusStateHead, i32, i32, i32, %struct.ResettableState, ptr, %struct.MemReentrancyGuard }
%struct.Object = type { ptr, ptr, ptr, i32, ptr }
%struct.NamedGPIOListHead = type { ptr }
%struct.NamedClockListHead = type { ptr }
%struct.BusStateHead = type { ptr }
%struct.ResettableState = type { i32, i8, i8 }
%struct.MemReentrancyGuard = type { i8 }
%struct.__jmp_buf_tag = type { [8 x i64], i32, %struct.__sigset_t }
%struct.QemuMutex = type { %union.pthread_mutex_t, i8 }
%union.pthread_mutex_t = type { %struct.__pthread_mutex_s }
%struct.__pthread_mutex_s = type { i32, i32, i32, i32, i32, i16, i16, %struct.__pthread_internal_list }
%struct.__pthread_internal_list = type { ptr, ptr }
%struct.anon = type { ptr, ptr }
%union.anon = type { %struct.QTailQLink }
%struct.QTailQLink = type { ptr, ptr }
%union.anon.0 = type { %struct.QTailQLink }
%union.anon.1 = type { %struct.QTailQLink }
%struct.QemuLockCnt = type { i32 }
%struct.CPUNegativeOffsetState = type { %struct.CPUTLB, %union.IcountDecr, i8, [11 x i8] }
%struct.CPUTLB = type { %struct.CPUTLBCommon, [16 x %struct.CPUTLBDesc], [16 x %struct.CPUTLBDescFast] }
%struct.CPUTLBCommon = type { %struct.QemuSpin, i16, i64, i64, i64 }
%struct.QemuSpin = type { i32 }
%struct.CPUTLBDesc = type { i64, i64, i64, i64, i64, i64, [8 x %union.CPUTLBEntry], [8 x %struct.CPUTLBEntryFull], ptr }
%union.CPUTLBEntry = type { %struct.anon.2 }
%struct.anon.2 = type { i64, i64, i64, i64 }
%struct.CPUTLBEntryFull = type { i64, i64, %struct.MemTxAttrs, i8, i8, [3 x i8], %union.anon.3 }
%struct.MemTxAttrs = type { i32 }
%union.anon.3 = type { %struct.anon.4 }
%struct.anon.4 = type { i8, i8, i8 }
%struct.CPUTLBDescFast = type { i64, ptr }
%union.IcountDecr = type { i32 }
%struct.TaskState = type { i32, i32, i64, i64, i64, i64, i32, ptr, ptr, %struct.emulated_sigtable, [64 x %struct.emulated_sigtable], %struct.__sigset_t, %struct.__sigset_t, i32, i32, %struct.target_sigaltstack, i64 }
%struct.emulated_sigtable = type { i32, %struct.target_siginfo }
%struct.target_siginfo = type { i32, i32, i32, %union.anon.6 }
%union.anon.6 = type { %struct.anon.10, [80 x i8] }
%struct.anon.10 = type { i32, i32, i32, i64, i64 }
%struct.target_sigaltstack = type { i64, i32, i64 }
%struct.CPUArchState = type { [32 x i64], [32 x i64], [512 x i64], i64, i64, i64, i64, i64, i8, i64, i64, i64, [32 x i64], i64, %struct.float_status, i64, i64, i64, i64, i64, i64, i32, i32, i32, i32, i32, i64, i64, i32, i64, i64, ptr, ptr, i8, i64, i64, [8 x i8] }
%struct.float_status = type { i16, i8, i8, i8, i8, i8, i8, i8, i8, i8, i8, i8 }

@thread_cpu = external thread_local global ptr, align 8

; Function Attrs: nounwind sspstrong uwtable
define internal void @stl_he_p(ptr noundef %ptr, i32 noundef %v) #0 {
entry:
  %ptr.addr = alloca ptr, align 8
  %v.addr = alloca i32, align 4
  store ptr %ptr, ptr %ptr.addr, align 8
  store i32 %v, ptr %v.addr, align 4
  %0 = load ptr, ptr %ptr.addr, align 8
  call void @llvm.memcpy.p0.p0.i64(ptr align 1 %0, ptr align 4 %v.addr, i64 4, i1 false)
  ret void
}

; Function Attrs: nounwind sspstrong uwtable
define dso_local i32 @on_sig_stack(i64 noundef %sp) #0 {
entry:
  %sp.addr = alloca i64, align 8
  %ts = alloca ptr, align 8
  store i64 %sp, ptr %sp.addr, align 8
  %0 = call align 8 ptr @llvm.threadlocal.address.p0(ptr align 8 @thread_cpu)
  %1 = load ptr, ptr %0, align 8
  %opaque = getelementptr inbounds %struct.CPUState, ptr %1, i32 0, i32 39
  %2 = load ptr, ptr %opaque, align 16
  store ptr %2, ptr %ts, align 8
  %3 = load i64, ptr %sp.addr, align 8
  %4 = load ptr, ptr %ts, align 8
  %sigaltstack_used = getelementptr inbounds %struct.TaskState, ptr %4, i32 0, i32 15
  %ss_sp = getelementptr inbounds %struct.target_sigaltstack, ptr %sigaltstack_used, i32 0, i32 0
  %5 = load i64, ptr %ss_sp, align 8
  %sub = sub i64 %3, %5
  %6 = load ptr, ptr %ts, align 8
  %sigaltstack_used1 = getelementptr inbounds %struct.TaskState, ptr %6, i32 0, i32 15
  %ss_size = getelementptr inbounds %struct.target_sigaltstack, ptr %sigaltstack_used1, i32 0, i32 2
  %7 = load i64, ptr %ss_size, align 8
  %cmp = icmp ult i64 %sub, %7
  %conv = zext i1 %cmp to i32
  ret i32 %conv
}

; Function Attrs: nounwind sspstrong uwtable
define internal void @stq_he_p(ptr noundef %ptr, i64 noundef %v) #0 {
entry:
  %ptr.addr = alloca ptr, align 8
  %v.addr = alloca i64, align 8
  store ptr %ptr, ptr %ptr.addr, align 8
  store i64 %v, ptr %v.addr, align 8
  %0 = load ptr, ptr %ptr.addr, align 8
  call void @llvm.memcpy.p0.p0.i64(ptr align 1 %0, ptr align 8 %v.addr, i64 8, i1 false)
  ret void
}

; Function Attrs: nounwind sspstrong uwtable
define internal void @stl_le_p(ptr noundef %ptr, i32 noundef %v) #0 {
entry:
  %ptr.addr = alloca ptr, align 8
  %v.addr = alloca i32, align 4
  store ptr %ptr, ptr %ptr.addr, align 8
  store i32 %v, ptr %v.addr, align 4
  %0 = load ptr, ptr %ptr.addr, align 8
  %1 = load i32, ptr %v.addr, align 4
  call void @stl_he_p(ptr noundef %0, i32 noundef %1)
  ret void
}

; Function Attrs: nounwind sspstrong uwtable
define dso_local i32 @sas_ss_flags(i64 noundef %sp) #0 {
entry:
  %sp.addr = alloca i64, align 8
  %ts = alloca ptr, align 8
  store i64 %sp, ptr %sp.addr, align 8
  %0 = call align 8 ptr @llvm.threadlocal.address.p0(ptr align 8 @thread_cpu)
  %1 = load ptr, ptr %0, align 8
  %opaque = getelementptr inbounds %struct.CPUState, ptr %1, i32 0, i32 39
  %2 = load ptr, ptr %opaque, align 16
  store ptr %2, ptr %ts, align 8
  %3 = load ptr, ptr %ts, align 8
  %sigaltstack_used = getelementptr inbounds %struct.TaskState, ptr %3, i32 0, i32 15
  %ss_size = getelementptr inbounds %struct.target_sigaltstack, ptr %sigaltstack_used, i32 0, i32 2
  %4 = load i64, ptr %ss_size, align 8
  %cmp = icmp eq i64 %4, 0
  br i1 %cmp, label %cond.true, label %cond.false

cond.true:                                        ; preds = %entry
  br label %cond.end

cond.false:                                       ; preds = %entry
  %5 = load i64, ptr %sp.addr, align 8
  %call = call i32 @on_sig_stack(i64 noundef %5)
  %tobool = icmp ne i32 %call, 0
  %cond = select i1 %tobool, i32 1, i32 0
  br label %cond.end

cond.end:                                         ; preds = %cond.false, %cond.true
  %cond1 = phi i32 [ 2, %cond.true ], [ %cond, %cond.false ]
  ret i32 %cond1
}

; Function Attrs: nounwind sspstrong uwtable
define internal i64 @get_sp_from_cpustate(ptr noundef %state) #0 {
entry:
  %state.addr = alloca ptr, align 8
  store ptr %state, ptr %state.addr, align 8
  %0 = load ptr, ptr %state.addr, align 8
  %gpr = getelementptr inbounds %struct.CPUArchState, ptr %0, i32 0, i32 0
  %arrayidx = getelementptr [32 x i64], ptr %gpr, i64 0, i64 2
  %1 = load i64, ptr %arrayidx, align 16
  ret i64 %1
}

; Function Attrs: nounwind sspstrong uwtable
define internal void @stq_le_p(ptr noundef %ptr, i64 noundef %v) #0 {
entry:
  %ptr.addr = alloca ptr, align 8
  %v.addr = alloca i64, align 8
  store ptr %ptr, ptr %ptr.addr, align 8
  store i64 %v, ptr %v.addr, align 8
  %0 = load ptr, ptr %ptr.addr, align 8
  %1 = load i64, ptr %v.addr, align 8
  call void @stq_he_p(ptr noundef %0, i64 noundef %1)
  ret void
}

; Function Attrs: nounwind sspstrong uwtable
define dso_local void @target_save_altstack(ptr noundef %uss, ptr noundef %env) #0 {
entry:
  %uss.addr = alloca ptr, align 8
  %env.addr = alloca ptr, align 8
  %ts = alloca ptr, align 8
  store ptr %uss, ptr %uss.addr, align 8
  store ptr %env, ptr %env.addr, align 8
  %0 = call align 8 ptr @llvm.threadlocal.address.p0(ptr align 8 @thread_cpu)
  %1 = load ptr, ptr %0, align 8
  %opaque = getelementptr inbounds %struct.CPUState, ptr %1, i32 0, i32 39
  %2 = load ptr, ptr %opaque, align 16
  store ptr %2, ptr %ts, align 8
  br label %do.body

do.body:                                          ; preds = %entry
  %3 = load ptr, ptr %uss.addr, align 8
  %ss_sp = getelementptr inbounds %struct.target_sigaltstack, ptr %3, i32 0, i32 0
  %4 = load ptr, ptr %ts, align 8
  %sigaltstack_used = getelementptr inbounds %struct.TaskState, ptr %4, i32 0, i32 15
  %ss_sp1 = getelementptr inbounds %struct.target_sigaltstack, ptr %sigaltstack_used, i32 0, i32 0
  %5 = load i64, ptr %ss_sp1, align 8
  call void @stq_le_p(ptr noundef %ss_sp, i64 noundef %5)
  br label %do.end

do.end:                                           ; preds = %do.body
  br label %do.body2

do.body2:                                         ; preds = %do.end
  %6 = load ptr, ptr %uss.addr, align 8
  %ss_flags = getelementptr inbounds %struct.target_sigaltstack, ptr %6, i32 0, i32 1
  %7 = load ptr, ptr %env.addr, align 8
  %call = call i64 @get_sp_from_cpustate(ptr noundef %7)
  %call3 = call i32 @sas_ss_flags(i64 noundef %call)
  call void @stl_le_p(ptr noundef %ss_flags, i32 noundef %call3)
  br label %do.end4

do.end4:                                          ; preds = %do.body2
  br label %do.body5

do.body5:                                         ; preds = %do.end4
  %8 = load ptr, ptr %uss.addr, align 8
  %ss_size = getelementptr inbounds %struct.target_sigaltstack, ptr %8, i32 0, i32 2
  %9 = load ptr, ptr %ts, align 8
  %sigaltstack_used6 = getelementptr inbounds %struct.TaskState, ptr %9, i32 0, i32 15
  %ss_size7 = getelementptr inbounds %struct.target_sigaltstack, ptr %sigaltstack_used6, i32 0, i32 2
  %10 = load i64, ptr %ss_size7, align 8
  call void @stq_le_p(ptr noundef %ss_size, i64 noundef %10)
  br label %do.end8

do.end8:                                          ; preds = %do.body5
  ret void
}