; Function Attrs: mustprogress nofree norecurse nosync nounwind sspstrong willreturn memory(read, argmem: readwrite, inaccessiblemem: none) uwtable
define dso_local void @target_save_altstack(ptr noundef writeonly captures(none) initializes((0, 12), (16, 24)) %uss, ptr noundef readonly captures(none) %env) local_unnamed_addr #8 {
entry:
  %0 = tail call align 8 ptr @llvm.threadlocal.address.p0(ptr align 8 @thread_cpu)
  %1 = load ptr, ptr %0, align 8
  %opaque = getelementptr inbounds nuw i8, ptr %1, i64 624
  %2 = load ptr, ptr %opaque, align 16
  %sigaltstack_used = getelementptr inbounds nuw i8, ptr %2, i64 9168
  %3 = load i64, ptr %sigaltstack_used, align 8
  store i64 %3, ptr %uss, align 1
  %4 = load ptr, ptr %0, align 8
  %opaque.i = getelementptr inbounds nuw i8, ptr %4, i64 624
  %5 = load ptr, ptr %opaque.i, align 16
  %ss_size.i = getelementptr inbounds nuw i8, ptr %5, i64 9184
  %6 = load i64, ptr %ss_size.i, align 8
  %cmp.i = icmp eq i64 %6, 0
  br i1 %cmp.i, label %sas_ss_flags.exit, label %cond.false.i

cond.false.i:                                     ; preds = %entry
  %7 = getelementptr i8, ptr %env, i64 16
  %env.val = load i64, ptr %7, align 16
  %sigaltstack_used.i.i = getelementptr inbounds nuw i8, ptr %5, i64 9168
  %8 = load i64, ptr %sigaltstack_used.i.i, align 8
  %sub.i.i = sub i64 %env.val, %8
  %cmp.i.i = icmp ult i64 %sub.i.i, %6
  %conv.i.i = zext i1 %cmp.i.i to i32
  br label %sas_ss_flags.exit

sas_ss_flags.exit:                                ; preds = %entry, %cond.false.i
  %cond1.i = phi i32 [ %conv.i.i, %cond.false.i ], [ 2, %entry ]
  %ss_flags = getelementptr inbounds nuw i8, ptr %uss, i64 8
  store i32 %cond1.i, ptr %ss_flags, align 1
  %ss_size = getelementptr inbounds nuw i8, ptr %uss, i64 16
  %ss_size7 = getelementptr inbounds nuw i8, ptr %2, i64 9184
  %9 = load i64, ptr %ss_size7, align 8
  store i64 %9, ptr %ss_size, align 1
  ret void
}